; Function Attrs: mustprogress nounwind uwtable
define void @_ZN6icu_7717CollationIteratorD2Ev(ptr noundef nonnull align 8 dereferenceable(389) initializes((0, 8)) %0) unnamed_addr #0 align 2 {
  store ptr getelementptr inbounds nuw inrange(-16, 128) (i8, ptr @_ZTVN6icu_7717CollationIteratorE, i64 16), ptr %0, align 8, !tbaa !24
  %2 = getelementptr inbounds nuw i8, ptr %0, i64 376
  %3 = load ptr, ptr %2, align 8, !tbaa !34
  %4 = icmp eq ptr %3, null
  br i1 %4, label %8, label %5

5:                                                ; preds = %1
  %6 = getelementptr inbounds nuw i8, ptr %3, i64 72
  tail call void @_ZN6icu_7713UnicodeStringD1Ev(ptr noundef nonnull align 8 dereferenceable(64) %6) #21
  %7 = getelementptr inbounds nuw i8, ptr %3, i64 8
  tail call void @_ZN6icu_7713UnicodeStringD1Ev(ptr noundef nonnull align 8 dereferenceable(64) %7) #21
  tail call void @_ZN6icu_777UMemorydlEPv(ptr noundef nonnull %3) #21
  br label %8

8:                                                ; preds = %5, %1
  %9 = getelementptr inbounds nuw i8, ptr %0, i64 24
  tail call void @_ZN6icu_7717CollationIterator8CEBufferD1Ev(ptr noundef nonnull align 8 dereferenceable(344) %9) #21
  tail call void @_ZN6icu_777UObjectD2Ev(ptr noundef nonnull align 8 dereferenceable(8) %0) #21
  ret void
}